; Function Attrs: nounwind uwtable
define i32 @bufferevent_get_priority(ptr noundef %0) local_unnamed_addr #0 {
  %2 = getelementptr inbounds nuw i8, ptr %0, i64 16
  %3 = tail call i32 @event_initialized(ptr noundef nonnull %2) #7
  %.not = icmp eq i32 %3, 0
  br i1 %.not, label %6, label %4

4:                                                ; preds = %1
  %5 = tail call i32 @event_get_priority(ptr noundef nonnull %2) #7
  br label %10

6:                                                ; preds = %1
  %7 = load ptr, ptr %0, align 8
  %8 = tail call i32 @event_base_get_npriorities(ptr noundef %7) #7
  %9 = sdiv i32 %8, 2
  br label %10

10:                                               ; preds = %6, %4
  %.0 = phi i32 [ %5, %4 ], [ %9, %6 ]
  ret i32 %.0
}